target datalayout = "e-m:e-p270:32:32-p271:32:32-p272:64:64-i64:64-i128:128-f80:128-n8:16:32:64-S128"
target triple = "x86_64-unknown-linux-gnu"

; Function Attrs: mustprogress uwtable
define hidden noundef zeroext i1 @_ZNK7datalog12rule_manager15has_quantifiersERKNS_4ruleE(ptr noundef nonnull align 8 dereferenceable(1368) %this, ptr noundef nonnull align 8 dereferenceable(80) %r) #4 align 2 {
entry:
  %this.addr = alloca ptr, align 8
  %r.addr = alloca ptr, align 8
  %exist = alloca i8, align 1
  %univ = alloca i8, align 1
  %lam = alloca i8, align 1
  store ptr %this, ptr %this.addr, align 8
  store ptr %r, ptr %r.addr, align 8
  %this1 = load ptr, ptr %this.addr, align 8
  %0 = load ptr, ptr %r.addr, align 8
  call void @_ZNK7datalog12rule_manager15has_quantifiersERKNS_4ruleERbS4_S4_(ptr noundef nonnull align 8 dereferenceable(1368) %this1, ptr noundef nonnull align 8 dereferenceable(80) %0, ptr noundef nonnull align 1 dereferenceable(1) %exist, ptr noundef nonnull align 1 dereferenceable(1) %univ, ptr noundef nonnull align 1 dereferenceable(1) %lam)
  %1 = load i8, ptr %exist, align 1
  %tobool = trunc i8 %1 to i1
  br i1 %tobool, label %lor.end, label %lor.lhs.false

lor.lhs.false:                                    ; preds = %entry
  %2 = load i8, ptr %univ, align 1
  %tobool2 = trunc i8 %2 to i1
  br i1 %tobool2, label %lor.end, label %lor.rhs

lor.rhs:                                          ; preds = %lor.lhs.false
  %3 = load i8, ptr %lam, align 1
  %tobool3 = trunc i8 %3 to i1
  br label %lor.end

lor.end:                                          ; preds = %lor.rhs, %lor.lhs.false, %entry
  %4 = phi i1 [ true, %lor.lhs.false ], [ true, %entry ], [ %tobool3, %lor.rhs ]
  ret i1 %4
}