; Function Attrs: mustprogress uwtable
define hidden noundef zeroext i1 @_ZNK7datalog12rule_manager15has_quantifiersERKNS_4ruleE(ptr noundef nonnull align 8 dereferenceable(1368) %this, ptr nocapture noundef nonnull readonly align 8 dereferenceable(80) %r) local_unnamed_addr #3 align 2 {
entry:
  %exist = alloca i8, align 1
  %univ = alloca i8, align 1
  %lam = alloca i8, align 1
  call void @_ZNK7datalog12rule_manager15has_quantifiersERKNS_4ruleERbS4_S4_(ptr noundef nonnull align 8 dereferenceable(1368) %this, ptr noundef nonnull align 8 dereferenceable(80) %r, ptr noundef nonnull align 1 dereferenceable(1) %exist, ptr noundef nonnull align 1 dereferenceable(1) %univ, ptr noundef nonnull align 1 dereferenceable(1) %lam)
  %0 = load i8, ptr %exist, align 1
  %1 = and i8 %0, 1
  %tobool.not = icmp eq i8 %1, 0
  br i1 %tobool.not, label %lor.lhs.false, label %lor.end

lor.lhs.false:                                    ; preds = %entry
  %2 = load i8, ptr %univ, align 1
  %3 = and i8 %2, 1
  %tobool2.not = icmp eq i8 %3, 0
  br i1 %tobool2.not, label %lor.rhs, label %lor.end

lor.rhs:                                          ; preds = %lor.lhs.false
  %4 = load i8, ptr %lam, align 1
  %5 = and i8 %4, 1
  %tobool3 = icmp ne i8 %5, 0
  br label %lor.end

lor.end:                                          ; preds = %lor.rhs, %lor.lhs.false, %entry
  %6 = phi i1 [ true, %lor.lhs.false ], [ true, %entry ], [ %tobool3, %lor.rhs ]
  ret i1 %6
}